target datalayout = "e-m:e-p270:32:32-p271:32:32-p272:64:64-i64:64-i128:128-f80:128-n8:16:32:64-S128"
target triple = "x86_64-pc-linux-gnu"

%struct.strvec = type { ptr, i64, i64 }
%struct.anon.0 = type { ptr, ptr, ptr }
%struct.child_process = type { %struct.strvec, %struct.strvec, i32, i32, i64, ptr, ptr, i32, i32, i32, ptr, i16, ptr }
%struct.option = type { i32, i32, ptr, ptr, ptr, ptr, i32, ptr, i64, ptr, i64, ptr }
%struct.maintenance_start_opts = type { i32 }

@.str.118 = private unnamed_addr constant [13 x i8] c"builtin/gc.c\00", align 1
@.str.167 = private unnamed_addr constant [10 x i8] c"scheduler\00", align 1
@.str.168 = private unnamed_addr constant [41 x i8] c"scheduler to trigger git maintenance run\00", align 1
@__const.maintenance_start.register_args = private unnamed_addr constant [2 x ptr] [ptr @.str.52, ptr null], align 16
@builtin_maintenance_start_usage = internal constant [2 x ptr] [ptr @.str.178, ptr null], align 16
@.str.169 = private unnamed_addr constant [38 x i8] c"failed to set up maintenance schedule\00", align 1
@.str.170 = private unnamed_addr constant [36 x i8] c"failed to add repo to global config\00", align 1
@.str.179 = private unnamed_addr constant [49 x i8] c"neither systemd timers nor crontab are available\00", align 1
@.str.180 = private unnamed_addr constant [10 x i8] c"systemctl\00", align 1
@.str.184 = private unnamed_addr constant [7 x i8] c"--user\00", align 1
@.str.185 = private unnamed_addr constant [12 x i8] c"list-timers\00", align 1
@.str.186 = private unnamed_addr constant [18 x i8] c"invalid scheduler\00", align 1
@.str.187 = private unnamed_addr constant [49 x i8] c"resolve_scheduler should have been called before\00", align 1
@.str.188 = private unnamed_addr constant [30 x i8] c"%s scheduler is not available\00", align 1

; Function Attrs: nounwind uwtable
define internal i32 @real_is_systemd_timer_available() #0 {
  %1 = alloca i32, align 4
  %2 = alloca %struct.child_process, align 8
  %3 = alloca i32, align 4
  call void @llvm.lifetime.start.p0(i64 120, ptr %2) #11
  call void @llvm.memcpy.p0.p0.i64(ptr align 8 %2, ptr align 8 @__const.real_is_systemd_timer_available.child, i64 120, i1 false)
  %4 = getelementptr inbounds nuw %struct.child_process, ptr %2, i32 0, i32 0
  call void (ptr, ...) @strvec_pushl(ptr noundef %4, ptr noundef @.str.180, ptr noundef @.str.184, ptr noundef @.str.185, ptr noundef null)
  %5 = getelementptr inbounds nuw %struct.child_process, ptr %2, i32 0, i32 11
  %6 = load i16, ptr %5, align 8
  %7 = and i16 %6, -2
  %8 = or i16 %7, 1
  store i16 %8, ptr %5, align 8
  %9 = getelementptr inbounds nuw %struct.child_process, ptr %2, i32 0, i32 11
  %10 = load i16, ptr %9, align 8
  %11 = and i16 %10, -3
  %12 = or i16 %11, 2
  store i16 %12, ptr %9, align 8
  %13 = getelementptr inbounds nuw %struct.child_process, ptr %2, i32 0, i32 11
  %14 = load i16, ptr %13, align 8
  %15 = and i16 %14, -5
  %16 = or i16 %15, 4
  store i16 %16, ptr %13, align 8
  %17 = getelementptr inbounds nuw %struct.child_process, ptr %2, i32 0, i32 11
  %18 = load i16, ptr %17, align 8
  %19 = and i16 %18, -17
  %20 = or i16 %19, 16
  store i16 %20, ptr %17, align 8
  %21 = call i32 @start_command(ptr noundef %2)
  %22 = icmp ne i32 %21, 0
  br i1 %22, label %23, label %24

23:                                               ; preds = %0
  store i32 0, ptr %1, align 4
  store i32 1, ptr %3, align 4
  br label %29

24:                                               ; preds = %0
  %25 = call i32 @finish_command(ptr noundef %2)
  %26 = icmp ne i32 %25, 0
  br i1 %26, label %27, label %28

27:                                               ; preds = %24
  store i32 0, ptr %1, align 4
  store i32 1, ptr %3, align 4
  br label %29

28:                                               ; preds = %24
  store i32 1, ptr %1, align 4
  store i32 1, ptr %3, align 4
  br label %29

29:                                               ; preds = %28, %27, %23
  call void @llvm.lifetime.end.p0(i64 120, ptr %2) #11
  %30 = load i32, ptr %1, align 4
  ret i32 %30
}

; Function Attrs: nounwind uwtable
define internal i32 @is_systemd_timer_available() #0 {
  %1 = alloca i32, align 4
  %2 = alloca i32, align 4
  %3 = alloca i32, align 4
  call void @llvm.lifetime.start.p0(i64 4, ptr %2) #11
  %4 = call i32 @get_schedule_cmd(ptr noundef @.str.180, ptr noundef %2, ptr noundef null)
  %5 = icmp ne i32 %4, 0
  br i1 %5, label %6, label %8

6:                                                ; preds = %0
  %7 = load i32, ptr %2, align 4, !tbaa !4
  store i32 %7, ptr %1, align 4
  store i32 1, ptr %3, align 4
  br label %10

8:                                                ; preds = %0
  %9 = call i32 @real_is_systemd_timer_available()
  store i32 %9, ptr %1, align 4
  store i32 1, ptr %3, align 4
  br label %10

10:                                               ; preds = %8, %6
  call void @llvm.lifetime.end.p0(i64 4, ptr %2) #11
  %11 = load i32, ptr %1, align 4
  ret i32 %11
}

; Function Attrs: nounwind uwtable
define internal void @validate_scheduler(i32 noundef %0) #0 {
  %2 = alloca i32, align 4
  store i32 %0, ptr %2, align 4, !tbaa !4
  %3 = load i32, ptr %2, align 4, !tbaa !4
  %4 = icmp eq i32 %3, -1
  br i1 %4, label %5, label %6

5:                                                ; preds = %1
  call void (ptr, i32, ptr, ...) @BUG_fl(ptr noundef @.str.118, i32 noundef 2891, ptr noundef @.str.186) #12
  unreachable

6:                                                ; preds = %1
  %7 = load i32, ptr %2, align 4, !tbaa !4
  %8 = icmp eq i32 %7, 0
  br i1 %8, label %9, label %10

9:                                                ; preds = %6
  call void (ptr, i32, ptr, ...) @BUG_fl(ptr noundef @.str.118, i32 noundef 2893, ptr noundef @.str.187) #12
  unreachable

10:                                               ; preds = %6
  %11 = load i32, ptr %2, align 4, !tbaa !4
  %12 = sext i32 %11 to i64
  %13 = getelementptr inbounds [5 x %struct.anon.0], ptr @scheduler_fn, i64 0, i64 %12
  %14 = getelementptr inbounds nuw %struct.anon.0, ptr %13, i32 0, i32 1
  %15 = load ptr, ptr %14, align 8, !tbaa !208
  %16 = call i32 %15()
  %17 = icmp ne i32 %16, 0
  br i1 %17, label %25, label %18

18:                                               ; preds = %10
  %19 = call ptr @_(ptr noundef @.str.188)
  %20 = load i32, ptr %2, align 4, !tbaa !4
  %21 = sext i32 %20 to i64
  %22 = getelementptr inbounds [5 x %struct.anon.0], ptr @scheduler_fn, i64 0, i64 %21
  %23 = getelementptr inbounds nuw %struct.anon.0, ptr %22, i32 0, i32 0
  %24 = load ptr, ptr %23, align 8, !tbaa !210
  call void (ptr, ...) @die(ptr noundef %19, ptr noundef %24) #12
  unreachable

25:                                               ; preds = %10
  ret void
}

; Function Attrs: nounwind uwtable
define internal i32 @resolve_scheduler(i32 noundef %0) #0 {
  %2 = alloca i32, align 4
  %3 = alloca i32, align 4
  store i32 %0, ptr %3, align 4, !tbaa !4
  %4 = load i32, ptr %3, align 4, !tbaa !4
  %5 = icmp ne i32 %4, 0
  br i1 %5, label %6, label %8

6:                                                ; preds = %1
  %7 = load i32, ptr %3, align 4, !tbaa !4
  store i32 %7, ptr %2, align 4
  br label %18

8:                                                ; preds = %1
  %9 = call i32 @is_systemd_timer_available()
  %10 = icmp ne i32 %9, 0
  br i1 %10, label %11, label %12

11:                                               ; preds = %8
  store i32 2, ptr %2, align 4
  br label %18

12:                                               ; preds = %8
  %13 = call i32 @is_crontab_available()
  %14 = icmp ne i32 %13, 0
  br i1 %14, label %15, label %16

15:                                               ; preds = %12
  store i32 1, ptr %2, align 4
  br label %18

16:                                               ; preds = %12
  %17 = call ptr @_(ptr noundef @.str.179)
  call void (ptr, ...) @die(ptr noundef %17) #12
  unreachable

18:                                               ; preds = %15, %11, %6
  %19 = load i32, ptr %2, align 4
  ret i32 %19
}

; Function Attrs: nounwind uwtable
define internal i32 @maintenance_start(i32 noundef %0, ptr noundef %1, ptr noundef %2, ptr noundef %3) #0 {
  %5 = alloca i32, align 4
  %6 = alloca ptr, align 8
  %7 = alloca ptr, align 8
  %8 = alloca ptr, align 8
  %9 = alloca %struct.maintenance_start_opts, align 4
  %10 = alloca [2 x %struct.option], align 16
  %11 = alloca [2 x ptr], align 16
  store i32 %0, ptr %5, align 4, !tbaa !4
  store ptr %1, ptr %6, align 8, !tbaa !8
  store ptr %2, ptr %7, align 8, !tbaa !11
  store ptr %3, ptr %8, align 8, !tbaa !13
  call void @llvm.lifetime.start.p0(i64 4, ptr %9) #11
  call void @llvm.memset.p0.i64(ptr align 4 %9, i8 0, i64 4, i1 false)
  call void @llvm.lifetime.start.p0(i64 176, ptr %10) #11
  %12 = getelementptr inbounds nuw %struct.option, ptr %10, i32 0, i32 0
  store i32 13, ptr %12, align 8, !tbaa !34
  %13 = getelementptr inbounds nuw %struct.option, ptr %10, i32 0, i32 1
  store i32 0, ptr %13, align 4, !tbaa !36
  %14 = getelementptr inbounds nuw %struct.option, ptr %10, i32 0, i32 2
  store ptr @.str.167, ptr %14, align 8, !tbaa !37
  %15 = getelementptr inbounds nuw %struct.option, ptr %10, i32 0, i32 3
  %16 = getelementptr inbounds nuw %struct.maintenance_start_opts, ptr %9, i32 0, i32 0
  store ptr %16, ptr %15, align 8, !tbaa !38
  %17 = getelementptr inbounds nuw %struct.option, ptr %10, i32 0, i32 4
  store ptr @.str.167, ptr %17, align 8, !tbaa !39
  %18 = getelementptr inbounds nuw %struct.option, ptr %10, i32 0, i32 5
  store ptr @.str.168, ptr %18, align 8, !tbaa !40
  %19 = getelementptr inbounds nuw %struct.option, ptr %10, i32 0, i32 6
  store i32 4, ptr %19, align 8, !tbaa !41
  %20 = getelementptr i8, ptr %10, i64 44
  call void @llvm.memset.p0.i64(ptr align 4 %20, i8 0, i64 4, i1 false)
  %21 = getelementptr inbounds nuw %struct.option, ptr %10, i32 0, i32 7
  store ptr @maintenance_opt_scheduler, ptr %21, align 8, !tbaa !42
  %22 = getelementptr inbounds nuw %struct.option, ptr %10, i32 0, i32 8
  store i64 0, ptr %22, align 8, !tbaa !43
  %23 = getelementptr inbounds nuw %struct.option, ptr %10, i32 0, i32 9
  store ptr null, ptr %23, align 8, !tbaa !44
  %24 = getelementptr inbounds nuw %struct.option, ptr %10, i32 0, i32 10
  store i64 0, ptr %24, align 8, !tbaa !45
  %25 = getelementptr inbounds nuw %struct.option, ptr %10, i32 0, i32 11
  store ptr null, ptr %25, align 8, !tbaa !46
  %26 = getelementptr inbounds %struct.option, ptr %10, i64 1
  call void @llvm.memset.p0.i64(ptr align 8 %26, i8 0, i64 88, i1 false)
  %27 = getelementptr inbounds nuw %struct.option, ptr %26, i32 0, i32 0
  store i32 0, ptr %27, align 8, !tbaa !34
  call void @llvm.lifetime.start.p0(i64 16, ptr %11) #11
  call void @llvm.memcpy.p0.p0.i64(ptr align 16 %11, ptr align 16 @__const.maintenance_start.register_args, i64 16, i1 false)
  %28 = load i32, ptr %5, align 4, !tbaa !4
  %29 = load ptr, ptr %6, align 8, !tbaa !8
  %30 = load ptr, ptr %7, align 8, !tbaa !11
  %31 = getelementptr inbounds [2 x %struct.option], ptr %10, i64 0, i64 0
  %32 = call i32 @parse_options(i32 noundef %28, ptr noundef %29, ptr noundef %30, ptr noundef %31, ptr noundef @builtin_maintenance_start_usage, i32 noundef 0)
  store i32 %32, ptr %5, align 4, !tbaa !4
  %33 = load i32, ptr %5, align 4, !tbaa !4
  %34 = icmp ne i32 %33, 0
  br i1 %34, label %35, label %37

35:                                               ; preds = %4
  %36 = getelementptr inbounds [2 x %struct.option], ptr %10, i64 0, i64 0
  call void @usage_with_options(ptr noundef @builtin_maintenance_start_usage, ptr noundef %36) #12
  unreachable

37:                                               ; preds = %4
  %38 = getelementptr inbounds nuw %struct.maintenance_start_opts, ptr %9, i32 0, i32 0
  %39 = load i32, ptr %38, align 4, !tbaa !135
  %40 = call i32 @resolve_scheduler(i32 noundef %39)
  %41 = getelementptr inbounds nuw %struct.maintenance_start_opts, ptr %9, i32 0, i32 0
  store i32 %40, ptr %41, align 4, !tbaa !135
  %42 = getelementptr inbounds nuw %struct.maintenance_start_opts, ptr %9, i32 0, i32 0
  %43 = load i32, ptr %42, align 4, !tbaa !135
  call void @validate_scheduler(i32 noundef %43)
  %44 = call i32 @update_background_schedule(ptr noundef %9, i32 noundef 1)
  %45 = icmp ne i32 %44, 0
  br i1 %45, label %46, label %48

46:                                               ; preds = %37
  %47 = call ptr @_(ptr noundef @.str.169)
  call void (ptr, ...) @die(ptr noundef %47) #12
  unreachable

48:                                               ; preds = %37
  %49 = getelementptr inbounds [2 x ptr], ptr %11, i64 0, i64 0
  %50 = load ptr, ptr %8, align 8, !tbaa !13
  %51 = call i32 @maintenance_register(i32 noundef 1, ptr noundef %49, ptr noundef null, ptr noundef %50)
  %52 = icmp ne i32 %51, 0
  br i1 %52, label %53, label %55

53:                                               ; preds = %48
  %54 = call ptr @_(ptr noundef @.str.170)
  call void (ptr, ...) @warning(ptr noundef %54)
  br label %55

55:                                               ; preds = %53, %48
  call void @llvm.lifetime.end.p0(i64 16, ptr %11) #11
  call void @llvm.lifetime.end.p0(i64 176, ptr %10) #11
  call void @llvm.lifetime.end.p0(i64 4, ptr %9) #11
  ret i32 0
}