; Function Attrs: nounwind uwtable
define internal noundef i32 @maintenance_start(i32 noundef %0, ptr noundef %1, ptr noundef %2, ptr noundef readnone captures(none) %3) #0 {
  %5 = alloca %struct.child_process, align 8
  %6 = alloca i32, align 4
  %7 = alloca %struct.maintenance_start_opts, align 4
  %8 = alloca [2 x %struct.option], align 16
  %9 = alloca [2 x ptr], align 16
  call void @llvm.lifetime.start.p0(i64 4, ptr nonnull %7) #21
  store i32 0, ptr %7, align 4
  call void @llvm.lifetime.start.p0(i64 176, ptr nonnull %8) #21
  store i32 13, ptr %8, align 16, !tbaa !27
  %10 = getelementptr inbounds nuw i8, ptr %8, i64 4
  store i32 0, ptr %10, align 4, !tbaa !29
  %11 = getelementptr inbounds nuw i8, ptr %8, i64 8
  store ptr @.str.167, ptr %11, align 8, !tbaa !30
  %12 = getelementptr inbounds nuw i8, ptr %8, i64 16
  store ptr %7, ptr %12, align 16, !tbaa !31
  %13 = getelementptr inbounds nuw i8, ptr %8, i64 24
  store ptr @.str.167, ptr %13, align 8, !tbaa !32
  %14 = getelementptr inbounds nuw i8, ptr %8, i64 32
  store ptr @.str.168, ptr %14, align 16, !tbaa !33
  %15 = getelementptr inbounds nuw i8, ptr %8, i64 40
  store i32 4, ptr %15, align 8, !tbaa !34
  %16 = getelementptr inbounds nuw i8, ptr %8, i64 44
  store i32 0, ptr %16, align 4
  %17 = getelementptr inbounds nuw i8, ptr %8, i64 48
  store ptr @maintenance_opt_scheduler, ptr %17, align 16, !tbaa !35
  %18 = getelementptr inbounds nuw i8, ptr %8, i64 56
  call void @llvm.memset.p0.i64(ptr noundef nonnull align 8 dereferenceable(120) %18, i8 0, i64 120, i1 false)
  call void @llvm.lifetime.start.p0(i64 16, ptr nonnull %9) #21
  call void @llvm.memcpy.p0.p0.i64(ptr noundef nonnull align 16 dereferenceable(16) %9, ptr noundef nonnull align 16 dereferenceable(16) @__const.maintenance_start.register_args, i64 16, i1 false)
  %19 = call i32 @parse_options(i32 noundef %0, ptr noundef %1, ptr noundef %2, ptr noundef nonnull %8, ptr noundef nonnull @builtin_maintenance_start_usage, i32 noundef 0) #21
  %.not = icmp eq i32 %19, 0
  br i1 %.not, label %21, label %20

20:                                               ; preds = %4
  call void @usage_with_options(ptr noundef nonnull @builtin_maintenance_start_usage, ptr noundef nonnull %8) #22
  unreachable

21:                                               ; preds = %4
  %22 = load i32, ptr %7, align 4, !tbaa !131
  switch i32 %22, label %39 [
    i32 0, label %23
    i32 -1, label %38
  ]

23:                                               ; preds = %21
  call void @llvm.lifetime.start.p0(i64 4, ptr nonnull %6) #21
  %24 = call fastcc i32 @get_schedule_cmd(ptr noundef nonnull @.str.180, ptr noundef nonnull %6, ptr noundef null)
  %.not.i.i = icmp eq i32 %24, 0
  br i1 %.not.i.i, label %27, label %25

25:                                               ; preds = %23
  %26 = load i32, ptr %6, align 4, !tbaa !4
  br label %is_systemd_timer_available.exit.i

27:                                               ; preds = %23
  call void @llvm.lifetime.start.p0(i64 120, ptr nonnull %5) #21
  call void @llvm.memcpy.p0.p0.i64(ptr noundef nonnull align 8 dereferenceable(120) %5, ptr noundef nonnull align 8 dereferenceable(120) @__const.schtasks_remove_task.child, i64 120, i1 false)
  call void (ptr, ...) @strvec_pushl(ptr noundef nonnull %5, ptr noundef nonnull @.str.180, ptr noundef nonnull @.str.184, ptr noundef nonnull @.str.185, ptr noundef null) #21
  %28 = getelementptr inbounds nuw i8, ptr %5, i64 104
  %29 = load i16, ptr %28, align 8
  %30 = or i16 %29, 23
  store i16 %30, ptr %28, align 8
  %31 = call i32 @start_command(ptr noundef nonnull %5) #21
  %.not.i.i.i = icmp eq i32 %31, 0
  br i1 %.not.i.i.i, label %32, label %real_is_systemd_timer_available.exit.i.i

32:                                               ; preds = %27
  %33 = call i32 @finish_command(ptr noundef nonnull %5) #21
  %.not1.i.i.i = icmp eq i32 %33, 0
  %..i.i.i = zext i1 %.not1.i.i.i to i32
  br label %real_is_systemd_timer_available.exit.i.i

real_is_systemd_timer_available.exit.i.i:         ; preds = %32, %27
  %.0.i.i.i = phi i32 [ 0, %27 ], [ %..i.i.i, %32 ]
  call void @llvm.lifetime.end.p0(i64 120, ptr nonnull %5) #21
  br label %is_systemd_timer_available.exit.i

is_systemd_timer_available.exit.i:                ; preds = %real_is_systemd_timer_available.exit.i.i, %25
  %.0.i.i = phi i32 [ %26, %25 ], [ %.0.i.i.i, %real_is_systemd_timer_available.exit.i.i ]
  call void @llvm.lifetime.end.p0(i64 4, ptr nonnull %6) #21
  %.not4.i = icmp eq i32 %.0.i.i, 0
  br i1 %.not4.i, label %34, label %resolve_scheduler.exit.thread

34:                                               ; preds = %is_systemd_timer_available.exit.i
  %35 = call i32 @is_crontab_available()
  %.not5.i = icmp eq i32 %35, 0
  br i1 %.not5.i, label %36, label %resolve_scheduler.exit.thread

36:                                               ; preds = %34
  %37 = call fastcc ptr @_(ptr noundef nonnull @.str.179)
  call void (ptr, ...) @die(ptr noundef %37) #22
  unreachable

resolve_scheduler.exit.thread:                    ; preds = %is_systemd_timer_available.exit.i, %34
  %.0.i.ph = phi i32 [ 1, %34 ], [ 2, %is_systemd_timer_available.exit.i ]
  store i32 %.0.i.ph, ptr %7, align 4, !tbaa !131
  br label %39

38:                                               ; preds = %21
  call void (ptr, i32, ptr, ...) @BUG_fl(ptr noundef nonnull @.str.118, i32 noundef 2891, ptr noundef nonnull @.str.186) #22
  unreachable

39:                                               ; preds = %21, %resolve_scheduler.exit.thread
  %.0.i7 = phi i32 [ %.0.i.ph, %resolve_scheduler.exit.thread ], [ %22, %21 ]
  %40 = sext i32 %.0.i7 to i64
  %41 = getelementptr inbounds [5 x %struct.anon.0], ptr @scheduler_fn, i64 0, i64 %40
  %42 = getelementptr inbounds nuw i8, ptr %41, i64 8
  %43 = load ptr, ptr %42, align 8, !tbaa !133
  %44 = call i32 %43() #21
  %.not.i5 = icmp eq i32 %44, 0
  br i1 %.not.i5, label %45, label %validate_scheduler.exit

45:                                               ; preds = %39
  %46 = call fastcc ptr @_(ptr noundef nonnull @.str.188)
  %47 = load ptr, ptr %41, align 8, !tbaa !135
  call void (ptr, ...) @die(ptr noundef %46, ptr noundef %47) #22
  unreachable

validate_scheduler.exit:                          ; preds = %39
  %48 = call fastcc i32 @update_background_schedule(ptr noundef nonnull %7, i32 noundef 1)
  %.not4 = icmp eq i32 %48, 0
  br i1 %.not4, label %51, label %49

49:                                               ; preds = %validate_scheduler.exit
  %50 = call fastcc ptr @_(ptr noundef nonnull @.str.169)
  call void (ptr, ...) @die(ptr noundef %50) #22
  unreachable

51:                                               ; preds = %validate_scheduler.exit
  %52 = call i32 @maintenance_register(i32 noundef 1, ptr noundef nonnull %9, ptr noundef null, ptr poison)
  call void @llvm.lifetime.end.p0(i64 16, ptr nonnull %9) #21
  call void @llvm.lifetime.end.p0(i64 176, ptr nonnull %8) #21
  call void @llvm.lifetime.end.p0(i64 4, ptr nonnull %7) #21
  ret i32 0
}